; Function Attrs: null_pointer_is_valid sspstrong uwtable
define hidden void @proto_register_1722_cvf() local_unnamed_addr #0 {
  %1 = tail call i32 @proto_register_protocol(ptr noundef nonnull @.str.178, ptr noundef nonnull @.str.179, ptr noundef nonnull @.str.180)
  store i32 %1, ptr @proto_1722_cvf, align 4
  tail call void @proto_register_field_array(i32 noundef %1, ptr noundef nonnull @proto_register_1722_cvf.hf, i32 noundef 13)
  tail call void @proto_register_subtree_array(ptr noundef nonnull @proto_register_1722_cvf.ett, i32 noundef 1)
  %2 = load i32, ptr @proto_1722_cvf, align 4
  %3 = tail call ptr @expert_register_protocol(i32 noundef %2)
  tail call void @expert_register_field_array(ptr noundef %3, ptr noundef nonnull @proto_register_1722_cvf.ei, i32 noundef 3)
  %4 = load i32, ptr @proto_1722_cvf, align 4
  %5 = tail call ptr @register_dissector(ptr noundef nonnull @.str.180, ptr noundef nonnull @dissect_1722_cvf, i32 noundef %4)
  store ptr %5, ptr @avb1722_cvf_handle, align 8
  ret void
}